; Function Attrs: nounwind uwtable
define ptr @Cudd_addNegate(ptr noundef %0, ptr noundef %1) #0 {
  %3 = getelementptr inbounds nuw i8, ptr %0, i64 448
  br label %4

4:                                                ; preds = %4, %2
  %5 = tail call ptr @cuddAddNegateRecur(ptr noundef %0, ptr noundef %1)
  %6 = load i32, ptr %3, align 8, !tbaa !3
  %7 = icmp eq i32 %6, 1
  br i1 %7, label %4, label %8, !llvm.loop !24

8:                                                ; preds = %4
  ret ptr %5
}